target datalayout = "e-m:e-p270:32:32-p271:32:32-p272:64:64-i64:64-i128:128-f80:128-n8:16:32:64-S128"
target triple = "x86_64-pc-linux-gnu"

%struct.PROC_HDR = type { ptr, ptr, ptr, ptr, i32, %struct.dlist_head, %struct.dlist_head, %struct.dlist_head, %struct.dlist_head, %struct.pg_atomic_uint32, %struct.pg_atomic_uint32, i32, i32, i32, i32 }
%struct.dlist_head = type { %struct.dlist_node }
%struct.dlist_node = type { ptr, ptr }
%struct.pg_atomic_uint32 = type { i32 }
%struct.dlist_iter = type { ptr, ptr }

@ProcGlobal = dso_local global ptr null, align 8
@ProcStructLock = internal global ptr null, align 8
@.str.2 = private unnamed_addr constant [7 x i8] c"proc.c\00", align 1
@__func__.HaveNFreeProcs = private unnamed_addr constant [15 x i8] c"HaveNFreeProcs\00", align 1

; Function Attrs: inlinehint nounwind uwtable
define internal i32 @tas(ptr noundef %0) #3 {
  %2 = alloca ptr, align 8
  %3 = alloca i8, align 1
  store ptr %0, ptr %2, align 8
  call void @llvm.lifetime.start.p0(i64 1, ptr %3) #10
  store i8 1, ptr %3, align 1
  %4 = load i8, ptr %3, align 1
  %5 = load ptr, ptr %2, align 8
  %6 = call i8 asm sideeffect "\09lock\09\09\09\0A\09xchgb\09$0,$1\09\0A", "=q,=*m,0,*m,~{memory},~{cc},~{dirflag},~{fpsr},~{flags}"(ptr elementtype(i8) %5, i8 %4, ptr elementtype(i8) %5) #10, !srcloc !17
  store i8 %6, ptr %3, align 1
  %7 = load i8, ptr %3, align 1
  %8 = zext i8 %7 to i32
  call void @llvm.lifetime.end.p0(i64 1, ptr %3) #10
  ret i32 %8
}

; Function Attrs: nounwind uwtable
define dso_local zeroext i1 @HaveNFreeProcs(i32 noundef %0, ptr noundef %1) #0 {
  %3 = alloca i32, align 4
  %4 = alloca ptr, align 8
  %5 = alloca %struct.dlist_iter, align 8
  %6 = alloca i32, align 4
  %7 = alloca i32, align 4
  store i32 %0, ptr %3, align 4
  store ptr %1, ptr %4, align 8
  call void @llvm.lifetime.start.p0(i64 16, ptr %5) #10
  %8 = load ptr, ptr @ProcStructLock, align 8
  %9 = call i32 @tas(ptr noundef %8)
  %10 = icmp ne i32 %9, 0
  br i1 %10, label %11, label %14

11:                                               ; preds = %2
  %12 = load ptr, ptr @ProcStructLock, align 8
  %13 = call i32 @s_lock(ptr noundef %12, ptr noundef @.str.2, i32 noundef 740, ptr noundef @__func__.HaveNFreeProcs)
  br label %15

14:                                               ; preds = %2
  br label %15

15:                                               ; preds = %14, %11
  %16 = load ptr, ptr %4, align 8
  store i32 0, ptr %16, align 4
  br label %17

17:                                               ; preds = %15
  br label %18

18:                                               ; preds = %17
  br label %19

19:                                               ; preds = %18
  store i32 1, ptr %6, align 4
  br label %20

20:                                               ; preds = %19
  br label %21

21:                                               ; preds = %20
  br label %22

22:                                               ; preds = %21
  store i32 1, ptr %7, align 4
  %23 = load ptr, ptr @ProcGlobal, align 8
  %24 = getelementptr inbounds nuw %struct.PROC_HDR, ptr %23, i32 0, i32 5
  %25 = getelementptr inbounds nuw %struct.dlist_head, ptr %24, i32 0, i32 0
  %26 = getelementptr inbounds nuw %struct.dlist_iter, ptr %5, i32 0, i32 1
  store ptr %25, ptr %26, align 8
  %27 = getelementptr inbounds nuw %struct.dlist_iter, ptr %5, i32 0, i32 1
  %28 = load ptr, ptr %27, align 8
  %29 = getelementptr inbounds nuw %struct.dlist_node, ptr %28, i32 0, i32 1
  %30 = load ptr, ptr %29, align 8
  %31 = icmp ne ptr %30, null
  br i1 %31, label %32, label %37

32:                                               ; preds = %22
  %33 = getelementptr inbounds nuw %struct.dlist_iter, ptr %5, i32 0, i32 1
  %34 = load ptr, ptr %33, align 8
  %35 = getelementptr inbounds nuw %struct.dlist_node, ptr %34, i32 0, i32 1
  %36 = load ptr, ptr %35, align 8
  br label %40

37:                                               ; preds = %22
  %38 = getelementptr inbounds nuw %struct.dlist_iter, ptr %5, i32 0, i32 1
  %39 = load ptr, ptr %38, align 8
  br label %40

40:                                               ; preds = %37, %32
  %41 = phi ptr [ %36, %32 ], [ %39, %37 ]
  %42 = getelementptr inbounds nuw %struct.dlist_iter, ptr %5, i32 0, i32 0
  store ptr %41, ptr %42, align 8
  br label %43

43:                                               ; preds = %59, %40
  %44 = getelementptr inbounds nuw %struct.dlist_iter, ptr %5, i32 0, i32 0
  %45 = load ptr, ptr %44, align 8
  %46 = getelementptr inbounds nuw %struct.dlist_iter, ptr %5, i32 0, i32 1
  %47 = load ptr, ptr %46, align 8
  %48 = icmp ne ptr %45, %47
  br i1 %48, label %49, label %65

49:                                               ; preds = %43
  %50 = load ptr, ptr %4, align 8
  %51 = load i32, ptr %50, align 4
  %52 = add i32 %51, 1
  store i32 %52, ptr %50, align 4
  %53 = load ptr, ptr %4, align 8
  %54 = load i32, ptr %53, align 4
  %55 = load i32, ptr %3, align 4
  %56 = icmp eq i32 %54, %55
  br i1 %56, label %57, label %58

57:                                               ; preds = %49
  br label %65

58:                                               ; preds = %49
  br label %59

59:                                               ; preds = %58
  %60 = getelementptr inbounds nuw %struct.dlist_iter, ptr %5, i32 0, i32 0
  %61 = load ptr, ptr %60, align 8
  %62 = getelementptr inbounds nuw %struct.dlist_node, ptr %61, i32 0, i32 1
  %63 = load ptr, ptr %62, align 8
  %64 = getelementptr inbounds nuw %struct.dlist_iter, ptr %5, i32 0, i32 0
  store ptr %63, ptr %64, align 8
  br label %43, !llvm.loop !24

65:                                               ; preds = %57, %43
  br label %66

66:                                               ; preds = %65
  call void asm sideeffect "", "~{memory},~{dirflag},~{fpsr},~{flags}"() #10, !srcloc !25
  %67 = load ptr, ptr @ProcStructLock, align 8
  store i8 0, ptr %67, align 1
  br label %68

68:                                               ; preds = %66
  br label %69

69:                                               ; preds = %68
  %70 = load ptr, ptr %4, align 8
  %71 = load i32, ptr %70, align 4
  %72 = load i32, ptr %3, align 4
  %73 = icmp eq i32 %71, %72
  call void @llvm.lifetime.end.p0(i64 16, ptr %5) #10
  ret i1 %73
}