; Function Attrs: nounwind uwtable
define dso_local zeroext i1 @HaveNFreeProcs(i32 noundef %0, ptr noundef captures(none) initializes((0, 4)) %1) local_unnamed_addr #0 {
  %3 = load ptr, ptr @ProcStructLock, align 8
  %4 = tail call i8 asm sideeffect "\09lock\09\09\09\0A\09xchgb\09$0,$1\09\0A", "=q,=*m,0,*m,~{memory},~{cc},~{dirflag},~{fpsr},~{flags}"(ptr elementtype(i8) %3, i8 1, ptr elementtype(i8) %3) #14, !srcloc !10
  %.not = icmp eq i8 %4, 0
  br i1 %.not, label %8, label %5

5:                                                ; preds = %2
  %6 = load ptr, ptr @ProcStructLock, align 8
  %7 = tail call i32 @s_lock(ptr noundef %6, ptr noundef nonnull @.str.2, i32 noundef 740, ptr noundef nonnull @__func__.HaveNFreeProcs) #14
  br label %8

8:                                                ; preds = %2, %5
  store i32 0, ptr %1, align 4
  %9 = load ptr, ptr @ProcGlobal, align 8
  %10 = getelementptr inbounds nuw i8, ptr %9, i64 40
  %11 = getelementptr inbounds nuw i8, ptr %9, i64 48
  %12 = load ptr, ptr %11, align 8
  %.not9 = icmp eq ptr %12, null
  %.not101114 = icmp eq ptr %12, %10
  %.not1011 = select i1 %.not9, i1 true, i1 %.not101114
  br i1 %.not1011, label %._crit_edge, label %.lr.ph

.lr.ph:                                           ; preds = %8, %16
  %13 = phi i32 [ %14, %16 ], [ 0, %8 ]
  %.sroa.0.012 = phi ptr [ %18, %16 ], [ %12, %8 ]
  %14 = add i32 %13, 1
  store i32 %14, ptr %1, align 4
  %15 = icmp eq i32 %14, %0
  br i1 %15, label %._crit_edge, label %16

16:                                               ; preds = %.lr.ph
  %17 = getelementptr inbounds nuw i8, ptr %.sroa.0.012, i64 8
  %18 = load ptr, ptr %17, align 8
  %.not10 = icmp eq ptr %18, %10
  br i1 %.not10, label %._crit_edge, label %.lr.ph, !llvm.loop !19

._crit_edge:                                      ; preds = %.lr.ph, %16, %8
  tail call void asm sideeffect "", "~{memory},~{dirflag},~{fpsr},~{flags}"() #14, !srcloc !20
  %19 = load ptr, ptr @ProcStructLock, align 8
  store i8 0, ptr %19, align 1
  %20 = load i32, ptr %1, align 4
  %21 = icmp eq i32 %20, %0
  ret i1 %21
}